target datalayout = "e-m:e-p270:32:32-p271:32:32-p272:64:64-i64:64-i128:128-f80:128-n8:16:32:64-S128"
target triple = "x86_64-pc-linux-gnu"

%struct.H5PB_t = type { i64, i64, i32, i32, i32, i32, i32, i32, ptr, ptr, i64, ptr, ptr, ptr, [2 x i32], [2 x i32], [2 x i32], [2 x i32], [2 x i32] }
%struct.H5F_shared_t = type { ptr, ptr, ptr, i8, i32, i32, %struct.H5F_mtab_t, ptr, i8, i8, i64, i32, i32, i64, i64, ptr, ptr, %struct.H5AC_cache_config_t, %struct.H5AC_cache_image_config_t, i8, i8, ptr, i64, i32, i8, i64, i64, double, i64, i64, i64, i32, i32, i32, i8, i32, ptr, ptr, ptr, ptr, i8, i8, i8, i64, ptr, ptr, i32, i64, i8, i32, i8, i64, i8, [13 x i32], [13 x i64], [13 x ptr], i8, i64, i64, [7 x i32], [7 x i32], %struct.H5F_blk_aggr_t, %struct.H5F_blk_aggr_t, i64, i64, %struct.H5F_meta_accum_t, i32, i32, [30 x ptr], %struct.H5F_object_flush_t, i8, ptr }
%struct.H5F_mtab_t = type { i32, i32, ptr }
%struct.H5AC_cache_config_t = type { i32, i8, i8, i8, [1025 x i8], i8, i8, i64, double, i64, i64, i64, i32, double, double, i8, i64, i32, double, double, i32, double, double, i8, i64, i32, i8, double, i64, i32 }
%struct.H5AC_cache_image_config_t = type { i32, i8, i8, i32 }
%struct.H5F_blk_aggr_t = type { i64, i64, i64, i64, i64 }
%struct.H5F_meta_accum_t = type { ptr, i64, i64, i64, i64, i64, i8 }
%struct.H5F_object_flush_t = type { ptr, ptr }
%struct.H5PB_entry_t = type { ptr, i64, i32, i8, ptr, ptr }

@H5PB_init_g = global i8 0, align 1
@H5_libterm_g = external global i8, align 1
@.str.10 = private unnamed_addr constant [98 x i8] c"generated/home/dtcxzyw/WorkSpace/Projects/compilers/llvm-opt-benchmark/bench/hdf5/hdf5/src/H5PB.c\00", align 1
@H5E_PAGEBUF_g = external global i64, align 8
@H5E_NOSPACE_g = external global i64, align 8
@.str.13 = private unnamed_addr constant [25 x i8] c"memory allocation failed\00", align 1
@__func__.H5PB_add_new_page = private unnamed_addr constant [18 x i8] c"H5PB_add_new_page\00", align 1
@H5E_BADVALUE_g = external global i64, align 8
@.str.20 = private unnamed_addr constant [32 x i8] c"Can't insert entry in skip list\00", align 1
@H5_H5PB_entry_t_reg_free_list = internal global { i8, [3 x i8], i32, i32, [4 x i8], ptr, i64, ptr } { i8 0, [3 x i8] zeroinitializer, i32 0, i32 0, [4 x i8] zeroinitializer, ptr @.str.36, i64 40, ptr null }, align 8

; Function Attrs: nounwind uwtable
define i32 @H5PB_add_new_page(ptr noundef %0, i32 noundef %1, i64 noundef %2) #0 {
  %4 = alloca ptr, align 8
  %5 = alloca i32, align 4
  %6 = alloca i64, align 8
  %7 = alloca ptr, align 8
  %8 = alloca ptr, align 8
  %9 = alloca i32, align 4
  %10 = alloca i8, align 1
  store ptr %0, ptr %4, align 8, !tbaa !16
  store i32 %1, ptr %5, align 4, !tbaa !12
  store i64 %2, ptr %6, align 8, !tbaa !18
  call void @llvm.lifetime.start.p0(i64 8, ptr %7) #6
  call void @llvm.lifetime.start.p0(i64 8, ptr %8) #6
  store ptr null, ptr %8, align 8, !tbaa !56
  call void @llvm.lifetime.start.p0(i64 4, ptr %9) #6
  store i32 0, ptr %9, align 4, !tbaa !12
  call void @llvm.lifetime.start.p0(i64 1, ptr %10) #6
  store i8 0, ptr %10, align 1, !tbaa !8
  %11 = load i8, ptr @H5PB_init_g, align 1, !tbaa !8, !range !10, !noundef !11
  %12 = trunc i8 %11 to i1
  br i1 %12, label %17, label %13

13:                                               ; preds = %3
  %14 = load i8, ptr @H5_libterm_g, align 1, !tbaa !8, !range !10, !noundef !11
  %15 = trunc i8 %14 to i1
  %16 = xor i1 %15, true
  br label %17

17:                                               ; preds = %13, %3
  %18 = phi i1 [ false, %3 ], [ %16, %13 ]
  %19 = xor i1 %18, true
  %20 = xor i1 %19, true
  %21 = zext i1 %20 to i32
  %22 = sext i32 %21 to i64
  %23 = call i64 @llvm.expect.i64(i64 %22, i64 0)
  %24 = icmp ne i64 %23, 0
  br i1 %24, label %25, label %26

25:                                               ; preds = %17
  store i8 1, ptr @H5PB_init_g, align 1, !tbaa !8
  br label %26

26:                                               ; preds = %25, %17
  %27 = load i8, ptr @H5PB_init_g, align 1, !tbaa !8, !range !10, !noundef !11
  %28 = trunc i8 %27 to i1
  br i1 %28, label %33, label %29

29:                                               ; preds = %26
  %30 = load i8, ptr @H5_libterm_g, align 1, !tbaa !8, !range !10, !noundef !11
  %31 = trunc i8 %30 to i1
  %32 = xor i1 %31, true
  br label %33

33:                                               ; preds = %29, %26
  %34 = phi i1 [ true, %26 ], [ %32, %29 ]
  %35 = xor i1 %34, true
  %36 = xor i1 %35, true
  %37 = zext i1 %36 to i32
  %38 = sext i32 %37 to i64
  %39 = call i64 @llvm.expect.i64(i64 %38, i64 1)
  %40 = icmp ne i64 %39, 0
  br i1 %40, label %41, label %121

41:                                               ; preds = %33
  %42 = load ptr, ptr %4, align 8, !tbaa !16
  %43 = getelementptr inbounds nuw %struct.H5F_shared_t, ptr %42, i32 0, i32 15
  %44 = load ptr, ptr %43, align 8, !tbaa !54
  store ptr %44, ptr %7, align 8, !tbaa !3
  %45 = load ptr, ptr %7, align 8, !tbaa !3
  %46 = getelementptr inbounds nuw %struct.H5PB_t, ptr %45, i32 0, i32 9
  %47 = load ptr, ptr %46, align 8, !tbaa !52
  %48 = call ptr @H5SL_search(ptr noundef %47, ptr noundef %6)
  %49 = icmp eq ptr null, %48
  br i1 %49, label %50, label %109

50:                                               ; preds = %41
  %51 = call noalias ptr @H5FL_reg_calloc(ptr noundef @H5_H5PB_entry_t_reg_free_list)
  store ptr %51, ptr %8, align 8, !tbaa !56
  %52 = icmp eq ptr null, %51
  br i1 %52, label %53, label %72

53:                                               ; preds = %50
  br label %54

54:                                               ; preds = %53
  br label %55

55:                                               ; preds = %54
  br label %56

56:                                               ; preds = %55
  %57 = load i64, ptr @H5E_PAGEBUF_g, align 8, !tbaa !18
  %58 = load i64, ptr @H5E_NOSPACE_g, align 8, !tbaa !18
  %59 = call i32 (ptr, ptr, i32, i64, i64, ptr, ...) @H5E_printf_stack(ptr noundef @.str.10, ptr noundef @__func__.H5PB_add_new_page, i32 noundef 527, i64 noundef %57, i64 noundef %58, ptr noundef @.str.13)
  br label %60

60:                                               ; preds = %56
  br label %61

61:                                               ; preds = %60
  store i8 1, ptr %10, align 1, !tbaa !8
  %62 = load i8, ptr %10, align 1, !tbaa !8, !range !10, !noundef !11
  %63 = trunc i8 %62 to i1
  %64 = zext i1 %63 to i8
  store i8 %64, ptr %10, align 1, !tbaa !8
  br label %65

65:                                               ; preds = %61
  br label %66

66:                                               ; preds = %65
  br label %67

67:                                               ; preds = %66
  store i32 -1, ptr %9, align 4, !tbaa !12
  br label %110

68:                                               ; No predecessors!
  br label %69

69:                                               ; preds = %68
  br label %70

70:                                               ; preds = %69
  br label %71

71:                                               ; preds = %70
  br label %72

72:                                               ; preds = %71, %50
  %73 = load i64, ptr %6, align 8, !tbaa !18
  %74 = load ptr, ptr %8, align 8, !tbaa !56
  %75 = getelementptr inbounds nuw %struct.H5PB_entry_t, ptr %74, i32 0, i32 1
  store i64 %73, ptr %75, align 8, !tbaa !68
  %76 = load i32, ptr %5, align 4, !tbaa !12
  %77 = load ptr, ptr %8, align 8, !tbaa !56
  %78 = getelementptr inbounds nuw %struct.H5PB_entry_t, ptr %77, i32 0, i32 2
  store i32 %76, ptr %78, align 8, !tbaa !69
  %79 = load ptr, ptr %8, align 8, !tbaa !56
  %80 = getelementptr inbounds nuw %struct.H5PB_entry_t, ptr %79, i32 0, i32 3
  store i8 0, ptr %80, align 4, !tbaa !57
  %81 = load ptr, ptr %7, align 8, !tbaa !3
  %82 = getelementptr inbounds nuw %struct.H5PB_t, ptr %81, i32 0, i32 9
  %83 = load ptr, ptr %82, align 8, !tbaa !52
  %84 = load ptr, ptr %8, align 8, !tbaa !56
  %85 = load ptr, ptr %8, align 8, !tbaa !56
  %86 = getelementptr inbounds nuw %struct.H5PB_entry_t, ptr %85, i32 0, i32 1
  %87 = call i32 @H5SL_insert(ptr noundef %83, ptr noundef %84, ptr noundef %86)
  %88 = icmp slt i32 %87, 0
  br i1 %88, label %89, label %108

89:                                               ; preds = %72
  br label %90

90:                                               ; preds = %89
  br label %91

91:                                               ; preds = %90
  br label %92

92:                                               ; preds = %91
  %93 = load i64, ptr @H5E_PAGEBUF_g, align 8, !tbaa !18
  %94 = load i64, ptr @H5E_BADVALUE_g, align 8, !tbaa !18
  %95 = call i32 (ptr, ptr, i32, i64, i64, ptr, ...) @H5E_printf_stack(ptr noundef @.str.10, ptr noundef @__func__.H5PB_add_new_page, i32 noundef 536, i64 noundef %93, i64 noundef %94, ptr noundef @.str.20)
  br label %96

96:                                               ; preds = %92
  br label %97

97:                                               ; preds = %96
  store i8 1, ptr %10, align 1, !tbaa !8
  %98 = load i8, ptr %10, align 1, !tbaa !8, !range !10, !noundef !11
  %99 = trunc i8 %98 to i1
  %100 = zext i1 %99 to i8
  store i8 %100, ptr %10, align 1, !tbaa !8
  br label %101

101:                                              ; preds = %97
  br label %102

102:                                              ; preds = %101
  br label %103

103:                                              ; preds = %102
  store i32 -1, ptr %9, align 4, !tbaa !12
  br label %110

104:                                              ; No predecessors!
  br label %105

105:                                              ; preds = %104
  br label %106

106:                                              ; preds = %105
  br label %107

107:                                              ; preds = %106
  br label %108

108:                                              ; preds = %107, %72
  br label %109

109:                                              ; preds = %108, %41
  br label %110

110:                                              ; preds = %109, %103, %67
  %111 = load i32, ptr %9, align 4, !tbaa !12
  %112 = icmp slt i32 %111, 0
  br i1 %112, label %113, label %120

113:                                              ; preds = %110
  %114 = load ptr, ptr %8, align 8, !tbaa !56
  %115 = icmp ne ptr %114, null
  br i1 %115, label %116, label %119

116:                                              ; preds = %113
  %117 = load ptr, ptr %8, align 8, !tbaa !56
  %118 = call ptr @H5FL_reg_free(ptr noundef @H5_H5PB_entry_t_reg_free_list, ptr noundef %117)
  store ptr %118, ptr %8, align 8, !tbaa !56
  br label %119

119:                                              ; preds = %116, %113
  br label %120

120:                                              ; preds = %119, %110
  br label %121

121:                                              ; preds = %120, %33
  %122 = load i32, ptr %9, align 4, !tbaa !12
  call void @llvm.lifetime.end.p0(i64 1, ptr %10) #6
  call void @llvm.lifetime.end.p0(i64 4, ptr %9) #6
  call void @llvm.lifetime.end.p0(i64 8, ptr %8) #6
  call void @llvm.lifetime.end.p0(i64 8, ptr %7) #6
  ret i32 %122
}