; Function Attrs: nounwind uwtable
define range(i32 -1, 1) i32 @H5PB_add_new_page(ptr noundef readonly captures(none) %0, i32 noundef %1, i64 noundef %2) local_unnamed_addr #4 {
  %4 = alloca i64, align 8
  store i64 %2, ptr %4, align 8, !tbaa !37
  %5 = load i8, ptr @H5PB_init_g, align 1, !tbaa !3, !range !7, !noundef !8
  %6 = trunc nuw i8 %5 to i1
  %7 = load i8, ptr @H5_libterm_g, align 1, !range !7
  %8 = trunc nuw i8 %7 to i1
  %9 = select i1 %6, i1 true, i1 %8
  br i1 %9, label %10, label %.thread, !prof !9

.thread:                                          ; preds = %3
  store i8 1, ptr @H5PB_init_g, align 1, !tbaa !3
  br label %13

10:                                               ; preds = %3
  %11 = xor i1 %8, true
  %12 = select i1 %6, i1 true, i1 %11
  br i1 %12, label %13, label %.thread18, !prof !10

13:                                               ; preds = %.thread, %10
  %14 = getelementptr inbounds nuw i8, ptr %0, i64 104
  %15 = load ptr, ptr %14, align 8, !tbaa !51
  %16 = getelementptr inbounds nuw i8, ptr %15, i64 48
  %17 = load ptr, ptr %16, align 8, !tbaa !49
  %18 = call ptr @H5SL_search(ptr noundef %17, ptr noundef nonnull %4) #10
  %19 = icmp eq ptr %18, null
  br i1 %19, label %20, label %.thread18

20:                                               ; preds = %13
  %21 = call noalias ptr @H5FL_reg_calloc(ptr noundef nonnull @H5_H5PB_entry_t_reg_free_list) #10
  %22 = icmp eq ptr %21, null
  br i1 %22, label %23, label %27

23:                                               ; preds = %20
  %24 = load i64, ptr @H5E_PAGEBUF_g, align 8, !tbaa !37
  %25 = load i64, ptr @H5E_NOSPACE_g, align 8, !tbaa !37
  %26 = call i32 (ptr, ptr, i32, i64, i64, ptr, ...) @H5E_printf_stack(ptr noundef nonnull @.str.10, ptr noundef nonnull @__func__.H5PB_add_new_page, i32 noundef 527, i64 noundef %24, i64 noundef %25, ptr noundef nonnull @.str.13) #10
  br label %.thread18

27:                                               ; preds = %20
  %28 = load i64, ptr %4, align 8, !tbaa !37
  %29 = getelementptr inbounds nuw i8, ptr %21, i64 8
  store i64 %28, ptr %29, align 8, !tbaa !63
  %30 = getelementptr inbounds nuw i8, ptr %21, i64 16
  store i32 %1, ptr %30, align 8, !tbaa !64
  %31 = getelementptr inbounds nuw i8, ptr %21, i64 20
  store i8 0, ptr %31, align 4, !tbaa !52
  %32 = load ptr, ptr %16, align 8, !tbaa !49
  %33 = call i32 @H5SL_insert(ptr noundef %32, ptr noundef nonnull %21, ptr noundef nonnull %29) #10
  %34 = icmp slt i32 %33, 0
  br i1 %34, label %35, label %.thread18

35:                                               ; preds = %27
  %36 = load i64, ptr @H5E_PAGEBUF_g, align 8, !tbaa !37
  %37 = load i64, ptr @H5E_BADVALUE_g, align 8, !tbaa !37
  %38 = call i32 (ptr, ptr, i32, i64, i64, ptr, ...) @H5E_printf_stack(ptr noundef nonnull @.str.10, ptr noundef nonnull @__func__.H5PB_add_new_page, i32 noundef 536, i64 noundef %36, i64 noundef %37, ptr noundef nonnull @.str.20) #10
  %39 = call ptr @H5FL_reg_free(ptr noundef nonnull @H5_H5PB_entry_t_reg_free_list, ptr noundef nonnull %21) #10
  br label %.thread18

.thread18:                                        ; preds = %23, %13, %27, %35, %10
  %.0 = phi i32 [ -1, %35 ], [ 0, %10 ], [ 0, %13 ], [ 0, %27 ], [ -1, %23 ]
  ret i32 %.0
}